target datalayout = "e-m:e-p270:32:32-p271:32:32-p272:64:64-i64:64-i128:128-f80:128-n8:16:32:64-S128"
target triple = "x86_64-pc-linux-gnu"

%struct.Abc_Obj_t_ = type { ptr, ptr, i32, i32, %struct.Vec_Int_t_, %struct.Vec_Int_t_, %union.anon, %union.anon.0 }
%struct.Vec_Int_t_ = type { i32, i32, ptr }
%union.anon = type { ptr }
%union.anon.0 = type { ptr }
%struct.Abc_Ntk_t_ = type { i32, i32, ptr, ptr, ptr, ptr, ptr, ptr, ptr, ptr, ptr, ptr, ptr, [11 x i32], i32, i32, i32, i32, ptr, i32, ptr, ptr, i32, i32, i32, double, i32, %struct.Vec_Int_t_, ptr, ptr, ptr, ptr, ptr, float, i32, ptr, ptr, ptr, ptr, ptr, ptr, ptr, ptr, ptr, ptr, ptr, ptr, ptr, ptr, ptr, ptr, ptr, ptr, ptr, ptr, ptr }
%struct.Vec_Ptr_t_ = type { i32, i32, ptr }

; Function Attrs: nounwind uwtable
define internal ptr @Vec_PtrEntry(ptr noundef %0, i32 noundef %1) #0 {
  %3 = alloca ptr, align 8
  %4 = alloca i32, align 4
  store ptr %0, ptr %3, align 8
  store i32 %1, ptr %4, align 4
  %5 = load ptr, ptr %3, align 8
  %6 = getelementptr inbounds %struct.Vec_Ptr_t_, ptr %5, i32 0, i32 2
  %7 = load ptr, ptr %6, align 8
  %8 = load i32, ptr %4, align 4
  %9 = sext i32 %8 to i64
  %10 = getelementptr inbounds ptr, ptr %7, i64 %9
  %11 = load ptr, ptr %10, align 8
  ret ptr %11
}

; Function Attrs: nounwind uwtable
define internal ptr @Abc_ObjFanout0(ptr noundef %0) #0 {
  %2 = alloca ptr, align 8
  store ptr %0, ptr %2, align 8
  %3 = load ptr, ptr %2, align 8
  %4 = getelementptr inbounds %struct.Abc_Obj_t_, ptr %3, i32 0, i32 0
  %5 = load ptr, ptr %4, align 8
  %6 = getelementptr inbounds %struct.Abc_Ntk_t_, ptr %5, i32 0, i32 5
  %7 = load ptr, ptr %6, align 8
  %8 = getelementptr inbounds %struct.Vec_Ptr_t_, ptr %7, i32 0, i32 2
  %9 = load ptr, ptr %8, align 8
  %10 = load ptr, ptr %2, align 8
  %11 = getelementptr inbounds %struct.Abc_Obj_t_, ptr %10, i32 0, i32 5
  %12 = getelementptr inbounds %struct.Vec_Int_t_, ptr %11, i32 0, i32 2
  %13 = load ptr, ptr %12, align 8
  %14 = getelementptr inbounds i32, ptr %13, i64 0
  %15 = load i32, ptr %14, align 4
  %16 = sext i32 %15 to i64
  %17 = getelementptr inbounds ptr, ptr %9, i64 %16
  %18 = load ptr, ptr %17, align 8
  ret ptr %18
}

; Function Attrs: nounwind uwtable
define internal ptr @Abc_NtkPi(ptr noundef %0, i32 noundef %1) #0 {
  %3 = alloca ptr, align 8
  %4 = alloca i32, align 4
  store ptr %0, ptr %3, align 8
  store i32 %1, ptr %4, align 4
  %5 = load ptr, ptr %3, align 8
  %6 = getelementptr inbounds %struct.Abc_Ntk_t_, ptr %5, i32 0, i32 6
  %7 = load ptr, ptr %6, align 8
  %8 = load i32, ptr %4, align 4
  %9 = call ptr @Vec_PtrEntry(ptr noundef %7, i32 noundef %8)
  ret ptr %9
}

; Function Attrs: nounwind uwtable
define internal i32 @Abc_NtkPiNum(ptr noundef %0) #0 {
  %2 = alloca ptr, align 8
  store ptr %0, ptr %2, align 8
  %3 = load ptr, ptr %2, align 8
  %4 = getelementptr inbounds %struct.Abc_Ntk_t_, ptr %3, i32 0, i32 6
  %5 = load ptr, ptr %4, align 8
  %6 = call i32 @Vec_PtrSize(ptr noundef %5)
  ret i32 %6
}

; Function Attrs: nounwind uwtable
define internal void @Vec_PtrFree(ptr noundef %0) #0 {
  %2 = alloca ptr, align 8
  store ptr %0, ptr %2, align 8
  %3 = load ptr, ptr %2, align 8
  %4 = getelementptr inbounds %struct.Vec_Ptr_t_, ptr %3, i32 0, i32 2
  %5 = load ptr, ptr %4, align 8
  %6 = icmp ne ptr %5, null
  br i1 %6, label %7, label %13

7:                                                ; preds = %1
  %8 = load ptr, ptr %2, align 8
  %9 = getelementptr inbounds %struct.Vec_Ptr_t_, ptr %8, i32 0, i32 2
  %10 = load ptr, ptr %9, align 8
  call void @free(ptr noundef %10) #7
  %11 = load ptr, ptr %2, align 8
  %12 = getelementptr inbounds %struct.Vec_Ptr_t_, ptr %11, i32 0, i32 2
  store ptr null, ptr %12, align 8
  br label %14

13:                                               ; preds = %1
  br label %14

14:                                               ; preds = %13, %7
  %15 = load ptr, ptr %2, align 8
  %16 = icmp ne ptr %15, null
  br i1 %16, label %17, label %19

17:                                               ; preds = %14
  %18 = load ptr, ptr %2, align 8
  call void @free(ptr noundef %18) #7
  store ptr null, ptr %2, align 8
  br label %20

19:                                               ; preds = %14
  br label %20

20:                                               ; preds = %19, %17
  ret void
}

; Function Attrs: nounwind uwtable
define internal ptr @Abc_ObjFanin0(ptr noundef %0) #0 {
  %2 = alloca ptr, align 8
  store ptr %0, ptr %2, align 8
  %3 = load ptr, ptr %2, align 8
  %4 = getelementptr inbounds %struct.Abc_Obj_t_, ptr %3, i32 0, i32 0
  %5 = load ptr, ptr %4, align 8
  %6 = getelementptr inbounds %struct.Abc_Ntk_t_, ptr %5, i32 0, i32 5
  %7 = load ptr, ptr %6, align 8
  %8 = getelementptr inbounds %struct.Vec_Ptr_t_, ptr %7, i32 0, i32 2
  %9 = load ptr, ptr %8, align 8
  %10 = load ptr, ptr %2, align 8
  %11 = getelementptr inbounds %struct.Abc_Obj_t_, ptr %10, i32 0, i32 4
  %12 = getelementptr inbounds %struct.Vec_Int_t_, ptr %11, i32 0, i32 2
  %13 = load ptr, ptr %12, align 8
  %14 = getelementptr inbounds i32, ptr %13, i64 0
  %15 = load i32, ptr %14, align 4
  %16 = sext i32 %15 to i64
  %17 = getelementptr inbounds ptr, ptr %9, i64 %16
  %18 = load ptr, ptr %17, align 8
  ret ptr %18
}

; Function Attrs: nounwind uwtable
define internal i32 @Abc_ObjIsLatch(ptr noundef %0) #0 {
  %2 = alloca ptr, align 8
  store ptr %0, ptr %2, align 8
  %3 = load ptr, ptr %2, align 8
  %4 = getelementptr inbounds %struct.Abc_Obj_t_, ptr %3, i32 0, i32 3
  %5 = load i32, ptr %4, align 4
  %6 = and i32 %5, 15
  %7 = icmp eq i32 %6, 8
  %8 = zext i1 %7 to i32
  ret i32 %8
}

; Function Attrs: nounwind uwtable
define internal ptr @Abc_NtkBox(ptr noundef %0, i32 noundef %1) #0 {
  %3 = alloca ptr, align 8
  %4 = alloca i32, align 4
  store ptr %0, ptr %3, align 8
  store i32 %1, ptr %4, align 4
  %5 = load ptr, ptr %3, align 8
  %6 = getelementptr inbounds %struct.Abc_Ntk_t_, ptr %5, i32 0, i32 11
  %7 = load ptr, ptr %6, align 8
  %8 = load i32, ptr %4, align 4
  %9 = call ptr @Vec_PtrEntry(ptr noundef %7, i32 noundef %8)
  ret ptr %9
}

; Function Attrs: nounwind uwtable
define internal i32 @Vec_PtrSize(ptr noundef %0) #0 {
  %2 = alloca ptr, align 8
  store ptr %0, ptr %2, align 8
  %3 = load ptr, ptr %2, align 8
  %4 = getelementptr inbounds %struct.Vec_Ptr_t_, ptr %3, i32 0, i32 1
  %5 = load i32, ptr %4, align 4
  ret i32 %5
}

; Function Attrs: nounwind uwtable
define internal ptr @Abc_NtkPo(ptr noundef %0, i32 noundef %1) #0 {
  %3 = alloca ptr, align 8
  %4 = alloca i32, align 4
  store ptr %0, ptr %3, align 8
  store i32 %1, ptr %4, align 4
  %5 = load ptr, ptr %3, align 8
  %6 = getelementptr inbounds %struct.Abc_Ntk_t_, ptr %5, i32 0, i32 7
  %7 = load ptr, ptr %6, align 8
  %8 = load i32, ptr %4, align 4
  %9 = call ptr @Vec_PtrEntry(ptr noundef %7, i32 noundef %8)
  ret ptr %9
}

; Function Attrs: nounwind uwtable
define internal i32 @Abc_NtkPoNum(ptr noundef %0) #0 {
  %2 = alloca ptr, align 8
  store ptr %0, ptr %2, align 8
  %3 = load ptr, ptr %2, align 8
  %4 = getelementptr inbounds %struct.Abc_Ntk_t_, ptr %3, i32 0, i32 7
  %5 = load ptr, ptr %4, align 8
  %6 = call i32 @Vec_PtrSize(ptr noundef %5)
  ret i32 %6
}

; Function Attrs: nounwind uwtable
define void @Abc_NtkMaxFlowTest(ptr noundef %0) #0 {
  %2 = alloca ptr, align 8
  %3 = alloca ptr, align 8
  %4 = alloca ptr, align 8
  %5 = alloca i32, align 4
  store ptr %0, ptr %2, align 8
  store i32 0, ptr %5, align 4
  br label %6

6:                                                ; preds = %23, %1
  %7 = load i32, ptr %5, align 4
  %8 = load ptr, ptr %2, align 8
  %9 = call i32 @Abc_NtkPoNum(ptr noundef %8)
  %10 = icmp slt i32 %7, %9
  br i1 %10, label %11, label %15

11:                                               ; preds = %6
  %12 = load ptr, ptr %2, align 8
  %13 = load i32, ptr %5, align 4
  %14 = call ptr @Abc_NtkPo(ptr noundef %12, i32 noundef %13)
  store ptr %14, ptr %4, align 8
  br label %15

15:                                               ; preds = %11, %6
  %16 = phi i1 [ false, %6 ], [ true, %11 ]
  br i1 %16, label %17, label %26

17:                                               ; preds = %15
  %18 = load ptr, ptr %4, align 8
  %19 = getelementptr inbounds %struct.Abc_Obj_t_, ptr %18, i32 0, i32 3
  %20 = load i32, ptr %19, align 4
  %21 = and i32 %20, -17
  %22 = or i32 %21, 16
  store i32 %22, ptr %19, align 4
  br label %23

23:                                               ; preds = %17
  %24 = load i32, ptr %5, align 4
  %25 = add nsw i32 %24, 1
  store i32 %25, ptr %5, align 4
  br label %6, !llvm.loop !4

26:                                               ; preds = %15
  store i32 0, ptr %5, align 4
  br label %27

27:                                               ; preds = %58, %26
  %28 = load i32, ptr %5, align 4
  %29 = load ptr, ptr %2, align 8
  %30 = getelementptr inbounds %struct.Abc_Ntk_t_, ptr %29, i32 0, i32 11
  %31 = load ptr, ptr %30, align 8
  %32 = call i32 @Vec_PtrSize(ptr noundef %31)
  %33 = icmp slt i32 %28, %32
  br i1 %33, label %34, label %38

34:                                               ; preds = %27
  %35 = load ptr, ptr %2, align 8
  %36 = load i32, ptr %5, align 4
  %37 = call ptr @Abc_NtkBox(ptr noundef %35, i32 noundef %36)
  store ptr %37, ptr %4, align 8
  br label %38

38:                                               ; preds = %34, %27
  %39 = phi i1 [ false, %27 ], [ true, %34 ]
  br i1 %39, label %40, label %61

40:                                               ; preds = %38
  %41 = load ptr, ptr %4, align 8
  %42 = call i32 @Abc_ObjIsLatch(ptr noundef %41)
  %43 = icmp ne i32 %42, 0
  br i1 %43, label %45, label %44

44:                                               ; preds = %40
  br label %57

45:                                               ; preds = %40
  %46 = load ptr, ptr %4, align 8
  %47 = call ptr @Abc_ObjFanin0(ptr noundef %46)
  %48 = getelementptr inbounds %struct.Abc_Obj_t_, ptr %47, i32 0, i32 3
  %49 = load i32, ptr %48, align 4
  %50 = and i32 %49, -17
  %51 = or i32 %50, 16
  store i32 %51, ptr %48, align 4
  %52 = load ptr, ptr %4, align 8
  %53 = getelementptr inbounds %struct.Abc_Obj_t_, ptr %52, i32 0, i32 3
  %54 = load i32, ptr %53, align 4
  %55 = and i32 %54, -17
  %56 = or i32 %55, 16
  store i32 %56, ptr %53, align 4
  br label %57

57:                                               ; preds = %45, %44
  br label %58

58:                                               ; preds = %57
  %59 = load i32, ptr %5, align 4
  %60 = add nsw i32 %59, 1
  store i32 %60, ptr %5, align 4
  br label %27, !llvm.loop !6

61:                                               ; preds = %38
  %62 = load ptr, ptr %2, align 8
  %63 = call ptr @Abc_NtkMaxFlow(ptr noundef %62, i32 noundef 1, i32 noundef 1)
  store ptr %63, ptr %3, align 8
  %64 = load ptr, ptr %3, align 8
  call void @Vec_PtrFree(ptr noundef %64)
  %65 = load ptr, ptr %2, align 8
  call void @Abc_NtkCleanMarkA(ptr noundef %65)
  store i32 0, ptr %5, align 4
  br label %66

66:                                               ; preds = %83, %61
  %67 = load i32, ptr %5, align 4
  %68 = load ptr, ptr %2, align 8
  %69 = call i32 @Abc_NtkPiNum(ptr noundef %68)
  %70 = icmp slt i32 %67, %69
  br i1 %70, label %71, label %75

71:                                               ; preds = %66
  %72 = load ptr, ptr %2, align 8
  %73 = load i32, ptr %5, align 4
  %74 = call ptr @Abc_NtkPi(ptr noundef %72, i32 noundef %73)
  store ptr %74, ptr %4, align 8
  br label %75

75:                                               ; preds = %71, %66
  %76 = phi i1 [ false, %66 ], [ true, %71 ]
  br i1 %76, label %77, label %86

77:                                               ; preds = %75
  %78 = load ptr, ptr %4, align 8
  %79 = getelementptr inbounds %struct.Abc_Obj_t_, ptr %78, i32 0, i32 3
  %80 = load i32, ptr %79, align 4
  %81 = and i32 %80, -17
  %82 = or i32 %81, 16
  store i32 %82, ptr %79, align 4
  br label %83

83:                                               ; preds = %77
  %84 = load i32, ptr %5, align 4
  %85 = add nsw i32 %84, 1
  store i32 %85, ptr %5, align 4
  br label %66, !llvm.loop !7

86:                                               ; preds = %75
  store i32 0, ptr %5, align 4
  br label %87

87:                                               ; preds = %118, %86
  %88 = load i32, ptr %5, align 4
  %89 = load ptr, ptr %2, align 8
  %90 = getelementptr inbounds %struct.Abc_Ntk_t_, ptr %89, i32 0, i32 11
  %91 = load ptr, ptr %90, align 8
  %92 = call i32 @Vec_PtrSize(ptr noundef %91)
  %93 = icmp slt i32 %88, %92
  br i1 %93, label %94, label %98

94:                                               ; preds = %87
  %95 = load ptr, ptr %2, align 8
  %96 = load i32, ptr %5, align 4
  %97 = call ptr @Abc_NtkBox(ptr noundef %95, i32 noundef %96)
  store ptr %97, ptr %4, align 8
  br label %98

98:                                               ; preds = %94, %87
  %99 = phi i1 [ false, %87 ], [ true, %94 ]
  br i1 %99, label %100, label %121

100:                                              ; preds = %98
  %101 = load ptr, ptr %4, align 8
  %102 = call i32 @Abc_ObjIsLatch(ptr noundef %101)
  %103 = icmp ne i32 %102, 0
  br i1 %103, label %105, label %104

104:                                              ; preds = %100
  br label %117

105:                                              ; preds = %100
  %106 = load ptr, ptr %4, align 8
  %107 = call ptr @Abc_ObjFanout0(ptr noundef %106)
  %108 = getelementptr inbounds %struct.Abc_Obj_t_, ptr %107, i32 0, i32 3
  %109 = load i32, ptr %108, align 4
  %110 = and i32 %109, -17
  %111 = or i32 %110, 16
  store i32 %111, ptr %108, align 4
  %112 = load ptr, ptr %4, align 8
  %113 = getelementptr inbounds %struct.Abc_Obj_t_, ptr %112, i32 0, i32 3
  %114 = load i32, ptr %113, align 4
  %115 = and i32 %114, -17
  %116 = or i32 %115, 16
  store i32 %116, ptr %113, align 4
  br label %117

117:                                              ; preds = %105, %104
  br label %118

118:                                              ; preds = %117
  %119 = load i32, ptr %5, align 4
  %120 = add nsw i32 %119, 1
  store i32 %120, ptr %5, align 4
  br label %87, !llvm.loop !8

121:                                              ; preds = %98
  %122 = load ptr, ptr %2, align 8
  %123 = call ptr @Abc_NtkMaxFlow(ptr noundef %122, i32 noundef 0, i32 noundef 1)
  store ptr %123, ptr %3, align 8
  %124 = load ptr, ptr %3, align 8
  call void @Vec_PtrFree(ptr noundef %124)
  %125 = load ptr, ptr %2, align 8
  call void @Abc_NtkCleanMarkA(ptr noundef %125)
  ret void
}