; Function Attrs: nounwind uwtable
define void @Abc_NtkMaxFlowTest(ptr noundef %0) local_unnamed_addr #0 {
  %2 = getelementptr i8, ptr %0, i64 48
  %.val4156 = load ptr, ptr %2, align 8
  %3 = getelementptr i8, ptr %.val4156, i64 4
  %.val41.val57 = load i32, ptr %3, align 4
  %4 = icmp sgt i32 %.val41.val57, 0
  br i1 %4, label %.lr.ph, label %.critedge.preheader

.critedge.preheader:                              ; preds = %.lr.ph, %1
  %5 = getelementptr inbounds nuw i8, ptr %0, i64 80
  %6 = load ptr, ptr %5, align 8
  %7 = getelementptr i8, ptr %6, i64 4
  %.val60 = load i32, ptr %7, align 4
  %8 = icmp sgt i32 %.val60, 0
  br i1 %8, label %.lr.ph62, label %.critedge2

.lr.ph:                                           ; preds = %1, %.lr.ph
  %indvars.iv = phi i64 [ %indvars.iv.next, %.lr.ph ], [ 0, %1 ]
  %.val4159 = phi ptr [ %.val41, %.lr.ph ], [ %.val4156, %1 ]
  %9 = getelementptr i8, ptr %.val4159, i64 8
  %.val42.val = load ptr, ptr %9, align 8
  %10 = getelementptr inbounds nuw ptr, ptr %.val42.val, i64 %indvars.iv
  %11 = load ptr, ptr %10, align 8
  %12 = getelementptr inbounds nuw i8, ptr %11, i64 20
  %13 = load i32, ptr %12, align 4
  %14 = or i32 %13, 16
  store i32 %14, ptr %12, align 4
  %indvars.iv.next = add nuw nsw i64 %indvars.iv, 1
  %.val41 = load ptr, ptr %2, align 8
  %15 = getelementptr i8, ptr %.val41, i64 4
  %.val41.val = load i32, ptr %15, align 4
  %16 = sext i32 %.val41.val to i64
  %17 = icmp slt i64 %indvars.iv.next, %16
  br i1 %17, label %.lr.ph, label %.critedge.preheader, !llvm.loop !4

.lr.ph62:                                         ; preds = %.critedge.preheader, %.critedge
  %18 = phi ptr [ %36, %.critedge ], [ %6, %.critedge.preheader ]
  %indvars.iv72 = phi i64 [ %indvars.iv.next73, %.critedge ], [ 0, %.critedge.preheader ]
  %19 = getelementptr i8, ptr %18, i64 8
  %.val43.val = load ptr, ptr %19, align 8
  %20 = getelementptr inbounds nuw ptr, ptr %.val43.val, i64 %indvars.iv72
  %21 = load ptr, ptr %20, align 8
  %22 = getelementptr i8, ptr %21, i64 20
  %.val45 = load i32, ptr %22, align 4
  %23 = and i32 %.val45, 15
  %.not55 = icmp eq i32 %23, 8
  br i1 %.not55, label %24, label %.critedge

24:                                               ; preds = %.lr.ph62
  %.val47 = load ptr, ptr %21, align 8
  %25 = getelementptr i8, ptr %21, i64 32
  %.val48 = load ptr, ptr %25, align 8
  %26 = getelementptr i8, ptr %.val47, i64 32
  %.val47.val = load ptr, ptr %26, align 8
  %.val48.val = load i32, ptr %.val48, align 4
  %27 = getelementptr i8, ptr %.val47.val, i64 8
  %.val47.val.val = load ptr, ptr %27, align 8
  %28 = sext i32 %.val48.val to i64
  %29 = getelementptr inbounds ptr, ptr %.val47.val.val, i64 %28
  %30 = load ptr, ptr %29, align 8
  %31 = getelementptr inbounds nuw i8, ptr %30, i64 20
  %32 = load i32, ptr %31, align 4
  %33 = or i32 %32, 16
  store i32 %33, ptr %31, align 4
  %34 = load i32, ptr %22, align 4
  %35 = or i32 %34, 16
  store i32 %35, ptr %22, align 4
  %.pre = load ptr, ptr %5, align 8
  br label %.critedge

.critedge:                                        ; preds = %24, %.lr.ph62
  %36 = phi ptr [ %.pre, %24 ], [ %18, %.lr.ph62 ]
  %indvars.iv.next73 = add nuw nsw i64 %indvars.iv72, 1
  %37 = getelementptr i8, ptr %36, i64 4
  %.val = load i32, ptr %37, align 4
  %38 = sext i32 %.val to i64
  %39 = icmp slt i64 %indvars.iv.next73, %38
  br i1 %39, label %.lr.ph62, label %.critedge2, !llvm.loop !6

.critedge2:                                       ; preds = %.critedge, %.critedge.preheader
  %40 = tail call ptr @Abc_NtkMaxFlow(ptr noundef nonnull %0, i32 noundef 1, i32 noundef 1)
  %41 = getelementptr inbounds nuw i8, ptr %40, i64 8
  %42 = load ptr, ptr %41, align 8
  %.not.i = icmp eq ptr %42, null
  br i1 %.not.i, label %Vec_PtrFree.exit, label %43

43:                                               ; preds = %.critedge2
  tail call void @free(ptr noundef nonnull %42) #12
  br label %Vec_PtrFree.exit

Vec_PtrFree.exit:                                 ; preds = %.critedge2, %43
  tail call void @free(ptr noundef nonnull %40) #12
  tail call void @Abc_NtkCleanMarkA(ptr noundef nonnull %0) #12
  %44 = getelementptr i8, ptr %0, i64 40
  %.val5163 = load ptr, ptr %44, align 8
  %45 = getelementptr i8, ptr %.val5163, i64 4
  %.val51.val64 = load i32, ptr %45, align 4
  %46 = icmp sgt i32 %.val51.val64, 0
  br i1 %46, label %.lr.ph67, label %.critedge4.preheader

.critedge4.preheader:                             ; preds = %.lr.ph67, %Vec_PtrFree.exit
  %47 = load ptr, ptr %5, align 8
  %48 = getelementptr i8, ptr %47, i64 4
  %.val4068 = load i32, ptr %48, align 4
  %49 = icmp sgt i32 %.val4068, 0
  br i1 %49, label %.lr.ph70, label %.critedge6

.lr.ph67:                                         ; preds = %Vec_PtrFree.exit, %.lr.ph67
  %indvars.iv75 = phi i64 [ %indvars.iv.next76, %.lr.ph67 ], [ 0, %Vec_PtrFree.exit ]
  %.val5166 = phi ptr [ %.val51, %.lr.ph67 ], [ %.val5163, %Vec_PtrFree.exit ]
  %50 = getelementptr i8, ptr %.val5166, i64 8
  %.val52.val = load ptr, ptr %50, align 8
  %51 = getelementptr inbounds nuw ptr, ptr %.val52.val, i64 %indvars.iv75
  %52 = load ptr, ptr %51, align 8
  %53 = getelementptr inbounds nuw i8, ptr %52, i64 20
  %54 = load i32, ptr %53, align 4
  %55 = or i32 %54, 16
  store i32 %55, ptr %53, align 4
  %indvars.iv.next76 = add nuw nsw i64 %indvars.iv75, 1
  %.val51 = load ptr, ptr %44, align 8
  %56 = getelementptr i8, ptr %.val51, i64 4
  %.val51.val = load i32, ptr %56, align 4
  %57 = sext i32 %.val51.val to i64
  %58 = icmp slt i64 %indvars.iv.next76, %57
  br i1 %58, label %.lr.ph67, label %.critedge4.preheader, !llvm.loop !7

.lr.ph70:                                         ; preds = %.critedge4.preheader, %.critedge4
  %59 = phi ptr [ %77, %.critedge4 ], [ %47, %.critedge4.preheader ]
  %indvars.iv78 = phi i64 [ %indvars.iv.next79, %.critedge4 ], [ 0, %.critedge4.preheader ]
  %60 = getelementptr i8, ptr %59, i64 8
  %.val44.val = load ptr, ptr %60, align 8
  %61 = getelementptr inbounds nuw ptr, ptr %.val44.val, i64 %indvars.iv78
  %62 = load ptr, ptr %61, align 8
  %63 = getelementptr i8, ptr %62, i64 20
  %.val46 = load i32, ptr %63, align 4
  %64 = and i32 %.val46, 15
  %.not = icmp eq i32 %64, 8
  br i1 %.not, label %65, label %.critedge4

65:                                               ; preds = %.lr.ph70
  %.val49 = load ptr, ptr %62, align 8
  %66 = getelementptr i8, ptr %62, i64 48
  %.val50 = load ptr, ptr %66, align 8
  %67 = getelementptr i8, ptr %.val49, i64 32
  %.val49.val = load ptr, ptr %67, align 8
  %.val50.val = load i32, ptr %.val50, align 4
  %68 = getelementptr i8, ptr %.val49.val, i64 8
  %.val49.val.val = load ptr, ptr %68, align 8
  %69 = sext i32 %.val50.val to i64
  %70 = getelementptr inbounds ptr, ptr %.val49.val.val, i64 %69
  %71 = load ptr, ptr %70, align 8
  %72 = getelementptr inbounds nuw i8, ptr %71, i64 20
  %73 = load i32, ptr %72, align 4
  %74 = or i32 %73, 16
  store i32 %74, ptr %72, align 4
  %75 = load i32, ptr %63, align 4
  %76 = or i32 %75, 16
  store i32 %76, ptr %63, align 4
  %.pre81 = load ptr, ptr %5, align 8
  br label %.critedge4

.critedge4:                                       ; preds = %65, %.lr.ph70
  %77 = phi ptr [ %.pre81, %65 ], [ %59, %.lr.ph70 ]
  %indvars.iv.next79 = add nuw nsw i64 %indvars.iv78, 1
  %78 = getelementptr i8, ptr %77, i64 4
  %.val40 = load i32, ptr %78, align 4
  %79 = sext i32 %.val40 to i64
  %80 = icmp slt i64 %indvars.iv.next79, %79
  br i1 %80, label %.lr.ph70, label %.critedge6, !llvm.loop !8

.critedge6:                                       ; preds = %.critedge4, %.critedge4.preheader
  %81 = tail call ptr @Abc_NtkMaxFlow(ptr noundef nonnull %0, i32 noundef 0, i32 noundef 1)
  %82 = getelementptr inbounds nuw i8, ptr %81, i64 8
  %83 = load ptr, ptr %82, align 8
  %.not.i53 = icmp eq ptr %83, null
  br i1 %.not.i53, label %Vec_PtrFree.exit54, label %84

84:                                               ; preds = %.critedge6
  tail call void @free(ptr noundef nonnull %83) #12
  br label %Vec_PtrFree.exit54

Vec_PtrFree.exit54:                               ; preds = %.critedge6, %84
  tail call void @free(ptr noundef nonnull %81) #12
  tail call void @Abc_NtkCleanMarkA(ptr noundef nonnull %0) #12
  ret void
}